; Function Attrs: mustprogress uwtable
define noundef ptr @_ZNK6icu_7524ICUResourceBundleFactory15getSupportedIDsER10UErrorCode(ptr noundef nonnull align 8 dereferenceable(144) %this, ptr nocapture noundef nonnull readonly align 4 dereferenceable(4) %status) unnamed_addr #1 align 2 {
entry:
  %0 = load i32, ptr %status, align 4
  %cmp.i = icmp sgt i32 %0, 0
  br i1 %cmp.i, label %return, label %if.then

if.then:                                          ; preds = %entry
  %_bundleName = getelementptr inbounds i8, ptr %this, i64 80
  %call2 = tail call noundef ptr @_ZN6icu_7513LocaleUtility23getAvailableLocaleNamesERKNS_13UnicodeStringE(ptr noundef nonnull align 8 dereferenceable(64) %_bundleName)
  br label %return

return:                                           ; preds = %entry, %if.then
  %retval.0 = phi ptr [ %call2, %if.then ], [ null, %entry ]
  ret ptr %retval.0
}